; Function Attrs: nounwind uwtable
define hidden void @luaK_patchlist(ptr noundef captures(none) %0, i32 noundef %1, i32 noundef %2) local_unnamed_addr #0 {
  %4 = getelementptr inbounds nuw i8, ptr %0, i64 48
  %5 = load i32, ptr %4, align 8, !tbaa !4
  %6 = icmp eq i32 %2, %5
  br i1 %6, label %7, label %38

7:                                                ; preds = %3
  %8 = getelementptr inbounds nuw i8, ptr %0, i64 52
  store i32 %2, ptr %8, align 4, !tbaa !17
  %9 = getelementptr inbounds nuw i8, ptr %0, i64 56
  %10 = icmp eq i32 %1, -1
  br i1 %10, label %luaK_patchtohere.exit, label %11

11:                                               ; preds = %7
  %12 = load i32, ptr %9, align 4, !tbaa !29
  %13 = icmp eq i32 %12, -1
  br i1 %13, label %15, label %.preheader.i.i

.preheader.i.i:                                   ; preds = %11
  %.val.i.i = load ptr, ptr %0, align 8, !tbaa !19
  %14 = getelementptr i8, ptr %.val.i.i, i64 24
  %.val.val.i.i = load ptr, ptr %14, align 8, !tbaa !20
  br label %16

15:                                               ; preds = %11
  store i32 %1, ptr %9, align 4, !tbaa !29
  br label %luaK_patchtohere.exit

16:                                               ; preds = %16, %.preheader.i.i
  %.0.i.i = phi i32 [ %24, %16 ], [ %12, %.preheader.i.i ]
  %17 = sext i32 %.0.i.i to i64
  %18 = getelementptr inbounds i32, ptr %.val.val.i.i, i64 %17
  %19 = load i32, ptr %18, align 4, !tbaa !29
  %20 = lshr i32 %19, 14
  %21 = add nsw i32 %20, -131071
  %22 = icmp eq i32 %21, -1
  %23 = add nuw nsw i32 %.0.i.i, 1
  %24 = add nsw i32 %23, %21
  %.not13.i.i = icmp eq i32 %24, -1
  %.not.i.i = select i1 %22, i1 true, i1 %.not13.i.i
  br i1 %.not.i.i, label %25, label %16, !llvm.loop !37

25:                                               ; preds = %16
  %26 = getelementptr inbounds i32, ptr %.val.val.i.i, i64 %17
  %.neg.i.i.i = xor i32 %.0.i.i, -1
  %27 = add i32 %1, %.neg.i.i.i
  %28 = tail call i32 @llvm.abs.i32(i32 %27, i1 true)
  %29 = icmp samesign ugt i32 %28, 131071
  br i1 %29, label %30, label %fixjump.exit.i.i

30:                                               ; preds = %25
  %31 = getelementptr inbounds nuw i8, ptr %0, i64 24
  %32 = load ptr, ptr %31, align 8, !tbaa !30
  tail call void @luaX_syntaxerror(ptr noundef %32, ptr noundef nonnull @.str.1) #8
  %.pre.i.i = load i32, ptr %26, align 4, !tbaa !29
  br label %fixjump.exit.i.i

fixjump.exit.i.i:                                 ; preds = %30, %25
  %33 = phi i32 [ %19, %25 ], [ %.pre.i.i, %30 ]
  %34 = and i32 %33, 16383
  %35 = shl i32 %27, 14
  %36 = add i32 %35, 2147467264
  %37 = or disjoint i32 %34, %36
  store i32 %37, ptr %26, align 4, !tbaa !29
  br label %luaK_patchtohere.exit

38:                                               ; preds = %3
  %.not19.i = icmp eq i32 %1, -1
  br i1 %.not19.i, label %luaK_patchtohere.exit, label %.lr.ph.i

.lr.ph.i:                                         ; preds = %38
  %39 = getelementptr inbounds nuw i8, ptr %0, i64 24
  br label %40

40:                                               ; preds = %fixjump.exit16.i, %.lr.ph.i
  %.020.i = phi i32 [ %1, %.lr.ph.i ], [ %49, %fixjump.exit16.i ]
  %.val.i = load ptr, ptr %0, align 8, !tbaa !19
  %41 = getelementptr i8, ptr %.val.i, i64 24
  %.val.val.i = load ptr, ptr %41, align 8, !tbaa !20
  %42 = sext i32 %.020.i to i64
  %43 = getelementptr inbounds i32, ptr %.val.val.i, i64 %42
  %44 = load i32, ptr %43, align 4, !tbaa !29
  %45 = lshr i32 %44, 14
  %46 = add nsw i32 %45, -131071
  %47 = icmp eq i32 %46, -1
  %48 = add nuw nsw i32 %.020.i, 1
  %49 = add nsw i32 %48, %46
  %50 = icmp sgt i32 %.020.i, 0
  br i1 %50, label %51, label %58

51:                                               ; preds = %40
  %52 = getelementptr inbounds i8, ptr %43, i64 -4
  %53 = load i32, ptr %52, align 4, !tbaa !29
  %54 = and i32 %53, 63
  %55 = zext nneg i32 %54 to i64
  %56 = getelementptr inbounds nuw [38 x i8], ptr @luaP_opmodes, i64 0, i64 %55
  %57 = load i8, ptr %56, align 1, !tbaa !39
  %.not.i.i.i = icmp sgt i8 %57, -1
  br i1 %.not.i.i.i, label %58, label %getjumpcontrol.exit.i.i

58:                                               ; preds = %51, %40
  br label %getjumpcontrol.exit.i.i

getjumpcontrol.exit.i.i:                          ; preds = %58, %51
  %59 = phi i32 [ %44, %58 ], [ %53, %51 ]
  %.0.i.i.i = phi ptr [ %43, %58 ], [ %52, %51 ]
  %60 = and i32 %59, 63
  %.not.i.i7 = icmp eq i32 %60, 27
  br i1 %.not.i.i7, label %61, label %69

61:                                               ; preds = %getjumpcontrol.exit.i.i
  %62 = lshr i32 %59, 17
  %63 = and i32 %62, 32704
  %64 = and i32 %59, 8372250
  %65 = or i32 %63, %64
  store i32 %65, ptr %.0.i.i.i, align 4, !tbaa !29
  %.neg.i.i = xor i32 %.020.i, -1
  %66 = add i32 %2, %.neg.i.i
  %67 = tail call i32 @llvm.abs.i32(i32 %66, i1 true)
  %68 = icmp samesign ugt i32 %67, 131071
  br i1 %68, label %fixjump.exit16.sink.split.sink.split.i, label %fixjump.exit16.sink.split.i

69:                                               ; preds = %getjumpcontrol.exit.i.i
  %.neg.i15.i = xor i32 %.020.i, -1
  %70 = add i32 %2, %.neg.i15.i
  %71 = tail call i32 @llvm.abs.i32(i32 %70, i1 true)
  %72 = icmp samesign ugt i32 %71, 131071
  br i1 %72, label %fixjump.exit16.sink.split.sink.split.i, label %fixjump.exit16.i

fixjump.exit16.sink.split.sink.split.i:           ; preds = %69, %61
  %.sink23.ph.ph.i = phi i32 [ %66, %61 ], [ %70, %69 ]
  %73 = load ptr, ptr %39, align 8, !tbaa !30
  tail call void @luaX_syntaxerror(ptr noundef %73, ptr noundef nonnull @.str.1) #8
  br label %fixjump.exit16.sink.split.i

fixjump.exit16.sink.split.i:                      ; preds = %fixjump.exit16.sink.split.sink.split.i, %61
  %.sink23.ph.i = phi i32 [ %66, %61 ], [ %.sink23.ph.ph.i, %fixjump.exit16.sink.split.sink.split.i ]
  %.pre.i = load i32, ptr %43, align 4, !tbaa !29
  br label %fixjump.exit16.i

fixjump.exit16.i:                                 ; preds = %fixjump.exit16.sink.split.i, %69
  %.sink24.i = phi i32 [ %44, %69 ], [ %.pre.i, %fixjump.exit16.sink.split.i ]
  %.sink23.i = phi i32 [ %70, %69 ], [ %.sink23.ph.i, %fixjump.exit16.sink.split.i ]
  %74 = and i32 %.sink24.i, 16383
  %75 = shl i32 %.sink23.i, 14
  %76 = add i32 %75, 2147467264
  %77 = or disjoint i32 %76, %74
  store i32 %77, ptr %43, align 4, !tbaa !29
  %.not25.i = icmp eq i32 %49, -1
  %.not.i = select i1 %47, i1 true, i1 %.not25.i
  br i1 %.not.i, label %luaK_patchtohere.exit, label %40, !llvm.loop !40

luaK_patchtohere.exit:                            ; preds = %fixjump.exit16.i, %38, %fixjump.exit.i.i, %15, %7
  ret void
}